target datalayout = "e-m:e-p270:32:32-p271:32:32-p272:64:64-i64:64-i128:128-f80:128-n8:16:32:64-S128"
target triple = "x86_64-pc-linux-gnu"

%class.ref_vector = type { %class.ref_vector_core }
%class.ref_vector_core = type { %class.ref_manager_wrapper, %class.ptr_vector.0 }
%class.ref_manager_wrapper = type { ptr }
%class.ptr_vector.0 = type { %class.vector.1 }
%class.vector.1 = type { ptr }
%class.u_map.7 = type { %class.map.8 }
%class.map.8 = type { %class.table2map.9 }
%class.table2map.9 = type { %class.core_hashtable.10 }
%class.core_hashtable.10 = type <{ ptr, i32, i32, i32, [4 x i8] }>
%class.vector.19 = type { ptr }
%class.ptr_vector.23 = type { %class.vector.24 }
%class.vector.24 = type { ptr }
%"class.mbp::term_graph::projector" = type { ptr, ptr, %class.u_map.7, %class.u_map.7, %class.th_rewriter, ptr, %class.ref_vector, %class.vector.19, %class.ptr_vector.23 }
%class.th_rewriter = type { ptr, %class.params_ref }
%class.params_ref = type { ptr }

; Function Attrs: mustprogress uwtable
define hidden void @_ZN3mbp10term_graph18shared_occurrencesEi(ptr dead_on_unwind noalias writable sret(%class.ref_vector) align 8 %0, ptr noundef nonnull align 8 dereferenceable(244) %1, i32 noundef %2) #4 align 2 personality ptr @__gxx_personality_v0 {
  %4 = alloca ptr, align 8
  %5 = alloca ptr, align 8
  %6 = alloca i32, align 4
  %7 = alloca %"class.mbp::term_graph::projector", align 8
  %8 = alloca ptr, align 8
  %9 = alloca i32, align 4
  store ptr %0, ptr %4, align 8
  store ptr %1, ptr %5, align 8, !tbaa !12
  store i32 %2, ptr %6, align 4, !tbaa !27
  %10 = load ptr, ptr %5, align 8
  call void @llvm.lifetime.start.p0(i64 120, ptr %7) #3
  call void @_ZN3mbp10term_graph9projectorC2ERS0_(ptr noundef nonnull align 8 dereferenceable(120) %7, ptr noundef nonnull align 8 dereferenceable(244) %10)
  %11 = load i32, ptr %6, align 4, !tbaa !27
  invoke void @_ZN3mbp10term_graph9projector18shared_occurrencesEi(ptr dead_on_unwind writable sret(%class.ref_vector) align 8 %0, ptr noundef nonnull align 8 dereferenceable(120) %7, i32 noundef %11)
          to label %12 unwind label %13

12:                                               ; preds = %3
  call void @_ZN3mbp10term_graph9projectorD2Ev(ptr noundef nonnull align 8 dereferenceable(120) %7) #3
  call void @llvm.lifetime.end.p0(i64 120, ptr %7) #3
  ret void

13:                                               ; preds = %3
  %14 = landingpad { ptr, i32 }
          cleanup
  %15 = extractvalue { ptr, i32 } %14, 0
  store ptr %15, ptr %8, align 8
  %16 = extractvalue { ptr, i32 } %14, 1
  store i32 %16, ptr %9, align 4
  call void @_ZN3mbp10term_graph9projectorD2Ev(ptr noundef nonnull align 8 dereferenceable(120) %7) #3
  call void @llvm.lifetime.end.p0(i64 120, ptr %7) #3
  br label %17

17:                                               ; preds = %13
  %18 = load ptr, ptr %8, align 8
  %19 = load i32, ptr %9, align 4
  %20 = insertvalue { ptr, i32 } poison, ptr %18, 0
  %21 = insertvalue { ptr, i32 } %20, i32 %19, 1
  resume { ptr, i32 } %21
}