; Function Attrs: mustprogress uwtable
define hidden void @_ZN3mbp10term_graph18shared_occurrencesEi(ptr dead_on_unwind noalias writable sret(%class.ref_vector) align 8 %0, ptr noundef nonnull align 8 dereferenceable(244) %1, i32 noundef %2) local_unnamed_addr #3 align 2 personality ptr @__gxx_personality_v0 {
  %4 = alloca %"class.mbp::term_graph::projector", align 8
  call void @llvm.lifetime.start.p0(i64 120, ptr nonnull %4) #27
  call void @_ZN3mbp10term_graph9projectorC2ERS0_(ptr noundef nonnull align 8 dereferenceable(120) %4, ptr noundef nonnull align 8 dereferenceable(244) %1)
  invoke void @_ZN3mbp10term_graph9projector18shared_occurrencesEi(ptr dead_on_unwind writable sret(%class.ref_vector) align 8 %0, ptr noundef nonnull align 8 dereferenceable(120) %4, i32 noundef %2)
          to label %5 unwind label %6

5:                                                ; preds = %3
  call void @_ZN3mbp10term_graph9projectorD2Ev(ptr noundef nonnull align 8 dereferenceable(120) %4) #27
  call void @llvm.lifetime.end.p0(i64 120, ptr nonnull %4) #27
  ret void

6:                                                ; preds = %3
  %7 = landingpad { ptr, i32 }
          cleanup
  call void @_ZN3mbp10term_graph9projectorD2Ev(ptr noundef nonnull align 8 dereferenceable(120) %4) #27
  call void @llvm.lifetime.end.p0(i64 120, ptr nonnull %4) #27
  resume { ptr, i32 } %7
}